; ModuleID = '60/710.c'
source_filename = "60/710.c"
target datalayout = "e-m:e-p270:32:32-p271:32:32-p272:64:64-i64:64-f80:128-n8:16:32:64-S128"
target triple = "x86_64-pc-linux-gnu"

@.str = private unnamed_addr constant [3 x i8] c"%d\00", align 1
@.str.1 = private unnamed_addr constant [7 x i8] c"%d %d\0A\00", align 1
@.str.2 = private unnamed_addr constant [7 x i8] c"empty\0A\00", align 1

; Function Attrs: noinline nounwind uwtable
define dso_local i32 @func(i32 %0, i32 %1) #0 {
  %3 = alloca i32, align 4
  %4 = alloca i32, align 4
  %5 = alloca i32, align 4
  %6 = alloca i32, align 4
  store i32 %0, i32* %3, align 4
  store i32 %1, i32* %4, align 4
  store i32 1, i32* %6, align 4
  store i32 2, i32* %5, align 4
  br label %7

7:                                                ; preds = %21, %2
  %8 = load i32, i32* %5, align 4
  %9 = sitofp i32 %8 to double
  %10 = load i32, i32* %3, align 4
  %11 = sitofp i32 %10 to double
  %12 = call double @sqrt(double %11) #3
  %13 = fcmp ole double %9, %12
  br i1 %13, label %14, label %24

14:                                               ; preds = %7
  %15 = load i32, i32* %3, align 4
  %16 = load i32, i32* %5, align 4
  %17 = srem i32 %15, %16
  %18 = icmp eq i32 %17, 0
  br i1 %18, label %19, label %20

19:                                               ; preds = %14
  store i32 0, i32* %6, align 4
  br label %24

20:                                               ; preds = %14
  br label %21

21:                                               ; preds = %20
  %22 = load i32, i32* %5, align 4
  %23 = add nsw i32 %22, 1
  store i32 %23, i32* %5, align 4
  br label %7

24:                                               ; preds = %19, %7
  store i32 2, i32* %5, align 4
  br label %25

25:                                               ; preds = %39, %24
  %26 = load i32, i32* %5, align 4
  %27 = sitofp i32 %26 to double
  %28 = load i32, i32* %4, align 4
  %29 = sitofp i32 %28 to double
  %30 = call double @sqrt(double %29) #3
  %31 = fcmp ole double %27, %30
  br i1 %31, label %32, label %42

32:                                               ; preds = %25
  %33 = load i32, i32* %4, align 4
  %34 = load i32, i32* %5, align 4
  %35 = srem i32 %33, %34
  %36 = icmp eq i32 %35, 0
  br i1 %36, label %37, label %38

37:                                               ; preds = %32
  store i32 0, i32* %6, align 4
  br label %42

38:                                               ; preds = %32
  br label %39

39:                                               ; preds = %38
  %40 = load i32, i32* %5, align 4
  %41 = add nsw i32 %40, 1
  store i32 %41, i32* %5, align 4
  br label %25

42:                                               ; preds = %37, %25
  %43 = load i32, i32* %6, align 4
  ret i32 %43
}

; Function Attrs: nounwind
declare dso_local double @sqrt(double) #1

; Function Attrs: noinline nounwind uwtable
define dso_local i32 @main() #0 {
  %1 = alloca i32, align 4
  %2 = alloca i32, align 4
  %3 = alloca i32, align 4
  %4 = alloca i32, align 4
  store i32 0, i32* %1, align 4
  store i32 0, i32* %2, align 4
  %5 = call i32 (i8*, ...) @__isoc99_scanf(i8* getelementptr inbounds ([3 x i8], [3 x i8]* @.str, i64 0, i64 0), i32* %3)
  store i32 1, i32* %4, align 4
  br label %6

6:                                                ; preds = %30, %14, %0
  %7 = load i32, i32* %4, align 4
  %8 = load i32, i32* %3, align 4
  %9 = sub nsw i32 %8, 2
  %10 = icmp sle i32 %7, %9
  br i1 %10, label %11, label %33

11:                                               ; preds = %6
  %12 = load i32, i32* %4, align 4
  %13 = icmp eq i32 %12, 1
  br i1 %13, label %14, label %17

14:                                               ; preds = %11
  %15 = load i32, i32* %4, align 4
  %16 = add nsw i32 %15, 2
  store i32 %16, i32* %4, align 4
  br label %6

17:                                               ; preds = %11
  %18 = load i32, i32* %4, align 4
  %19 = load i32, i32* %4, align 4
  %20 = add nsw i32 %19, 2
  %21 = call i32 @func(i32 %18, i32 %20)
  %22 = icmp eq i32 %21, 1
  br i1 %22, label %23, label %30

23:                                               ; preds = %17
  %24 = load i32, i32* %2, align 4
  %25 = add nsw i32 %24, 1
  store i32 %25, i32* %2, align 4
  %26 = load i32, i32* %4, align 4
  %27 = load i32, i32* %4, align 4
  %28 = add nsw i32 %27, 2
  %29 = call i32 (i8*, ...) @printf(i8* getelementptr inbounds ([7 x i8], [7 x i8]* @.str.1, i64 0, i64 0), i32 %26, i32 %28)
  br label %30

30:                                               ; preds = %23, %17
  %31 = load i32, i32* %4, align 4
  %32 = add nsw i32 %31, 2
  store i32 %32, i32* %4, align 4
  br label %6

33:                                               ; preds = %6
  %34 = load i32, i32* %2, align 4
  %35 = icmp eq i32 %34, 0
  br i1 %35, label %36, label %38

36:                                               ; preds = %33
  %37 = call i32 (i8*, ...) @printf(i8* getelementptr inbounds ([7 x i8], [7 x i8]* @.str.2, i64 0, i64 0))
  br label %38

38:                                               ; preds = %36, %33
  ret i32 0
}

declare dso_local i32 @__isoc99_scanf(i8*, ...) #2

declare dso_local i32 @printf(i8*, ...) #2


!llvm.module.flags = !{!0}
!llvm.ident = !{!1}

!0 = !{i32 1, !"wchar_size", i32 4}
!1 = !{!"clang version 10.0.0-4ubuntu1 "}
